; Function Attrs: nofree nounwind uwtable
define hidden noundef i32 @fcgi_end(ptr noundef %0) local_unnamed_addr #22 {
  %2 = getelementptr inbounds i8, ptr %0, i64 24
  %3 = load i32, ptr %2, align 8
  %.not = icmp eq i32 %3, 0
  br i1 %.not, label %4, label %6

4:                                                ; preds = %1
  %5 = tail call i32 @fcgi_flush(ptr noundef nonnull %0, i32 noundef 1), !range !4
  store i32 1, ptr %2, align 8
  br label %6

6:                                                ; preds = %4, %1
  %.0 = phi i32 [ 1, %1 ], [ %5, %4 ]
  ret i32 %.0
}